; Function Attrs: mustprogress nofree norecurse nosync nounwind memory(readwrite, inaccessiblemem: none) uwtable
define void @_ZN3gmx20InMemoryDeserializer8doUShortEPt(ptr nocapture noundef nonnull readonly align 8 dereferenceable(16) %0, ptr nocapture noundef writeonly %1) unnamed_addr #3 align 2 {
  %3 = getelementptr inbounds i8, ptr %0, i64 8
  %4 = load ptr, ptr %3, align 8
  %5 = getelementptr inbounds i8, ptr %4, i64 32
  %6 = load i32, ptr %5, align 8
  %7 = icmp eq i32 %6, 1
  %8 = getelementptr inbounds i8, ptr %4, i64 24
  %9 = load i64, ptr %8, align 8
  %10 = load i64, ptr %4, align 8
  %11 = inttoptr i64 %10 to ptr
  %12 = getelementptr inbounds i8, ptr %11, i64 %9
  %13 = load i16, ptr %12, align 1
  br i1 %7, label %14, label %_ZN3gmx20InMemoryDeserializer4Impl7doValueItEEvPT_.exit

14:                                               ; preds = %2
  %.sroa.0.0.extract.trunc.i.i = trunc i16 %13 to i8
  %.sroa.4.0.extract.shift.i.i = lshr i16 %13, 8
  %.sroa.4.0.extract.trunc.i.i = trunc nuw i16 %.sroa.4.0.extract.shift.i.i to i8
  br label %15

15:                                               ; preds = %15, %14
  %.sroa.4.0.i.i = phi i8 [ %.sroa.4.0.extract.trunc.i.i, %14 ], [ %.sroa.0.0.i.i, %15 ]
  %.sroa.0.0.i.i = phi i8 [ %.sroa.0.0.extract.trunc.i.i, %14 ], [ %.sroa.4.0.i.i, %15 ]
  %.06.i.i = phi i32 [ 1, %14 ], [ 0, %15 ]
  %.0.i.i = phi i32 [ 0, %14 ], [ 1, %15 ]
  %16 = icmp ugt i32 %.06.i.i, %.0.i.i
  br i1 %16, label %15, label %_ZN3gmx12_GLOBAL__N_110swapEndianItEET_RKS2_.exit.i, !llvm.loop !5

_ZN3gmx12_GLOBAL__N_110swapEndianItEET_RKS2_.exit.i: ; preds = %15
  %.sroa.4.0.insert.ext.i.i = zext i8 %.sroa.4.0.i.i to i16
  %.sroa.4.0.insert.shift.i.i = shl nuw i16 %.sroa.4.0.insert.ext.i.i, 8
  %.sroa.0.0.insert.ext.i.i = zext i8 %.sroa.0.0.i.i to i16
  %.sroa.0.0.insert.insert.i.i = or disjoint i16 %.sroa.4.0.insert.shift.i.i, %.sroa.0.0.insert.ext.i.i
  br label %_ZN3gmx20InMemoryDeserializer4Impl7doValueItEEvPT_.exit

_ZN3gmx20InMemoryDeserializer4Impl7doValueItEEvPT_.exit: ; preds = %2, %_ZN3gmx12_GLOBAL__N_110swapEndianItEET_RKS2_.exit.i
  %storemerge.i = phi i16 [ %.sroa.0.0.insert.insert.i.i, %_ZN3gmx12_GLOBAL__N_110swapEndianItEET_RKS2_.exit.i ], [ %13, %2 ]
  store i16 %storemerge.i, ptr %1, align 2
  %17 = load i64, ptr %8, align 8
  %18 = add i64 %17, 2
  store i64 %18, ptr %8, align 8
  ret void
}